target datalayout = "e-m:e-p270:32:32-p271:32:32-p272:64:64-i64:64-i128:128-f80:128-n8:16:32:64-S128"
target triple = "x86_64-pc-linux-gnu"

%class.Scheduler = type { [200 x %"struct.Scheduler::handType"], [200 x %"struct.Scheduler::groupType"], i32, i32, %"struct.std::atomic", [6 x [200 x %"struct.Scheduler::listType"]], [200 x %"struct.Scheduler::sortType"], i32, %"class.std::vector", %"class.std::vector", %"class.std::vector", i32, i32, %"class.std::vector", %"class.std::vector.0", %class.Timer }
%"struct.Scheduler::handType" = type { i32, i32, [4 x [4 x i32]], i32, i32, i32, i32, i32, i32, i32, i32, i32, i32 }
%"struct.Scheduler::groupType" = type { i32, i32, i32, i32, i32, i32 }
%"struct.std::atomic" = type { %"struct.std::__atomic_base" }
%"struct.std::__atomic_base" = type { i32 }
%"struct.Scheduler::listType" = type { i32, i32, i32 }
%"struct.Scheduler::sortType" = type { i32, i32 }
%"class.std::vector" = type { %"struct.std::_Vector_base" }
%"struct.std::_Vector_base" = type { %"struct.std::_Vector_base<int, std::allocator<int>>::_Vector_impl" }
%"struct.std::_Vector_base<int, std::allocator<int>>::_Vector_impl" = type { %"struct.std::_Vector_base<int, std::allocator<int>>::_Vector_impl_data" }
%"struct.std::_Vector_base<int, std::allocator<int>>::_Vector_impl_data" = type { ptr, ptr, ptr }
%"class.std::vector.0" = type { %"struct.std::_Vector_base.1" }
%"struct.std::_Vector_base.1" = type { %"struct.std::_Vector_base<Timer, std::allocator<Timer>>::_Vector_impl" }
%"struct.std::_Vector_base<Timer, std::allocator<Timer>>::_Vector_impl" = type { %"struct.std::_Vector_base<Timer, std::allocator<Timer>>::_Vector_impl_data" }
%"struct.std::_Vector_base<Timer, std::allocator<Timer>>::_Vector_impl_data" = type { ptr, ptr, ptr }
%class.Timer = type { %"class.std::__cxx11::basic_string", i32, i64, i64, %"class.std::chrono::time_point", i64 }
%"class.std::__cxx11::basic_string" = type { %"struct.std::__cxx11::basic_string<char>::_Alloc_hider", i64, %union.anon }
%"struct.std::__cxx11::basic_string<char>::_Alloc_hider" = type { ptr }
%union.anon = type { i64, [8 x i8] }
%"class.std::chrono::time_point" = type { %"class.std::chrono::duration" }
%"class.std::chrono::duration" = type { i64 }

; Function Attrs: mustprogress nounwind uwtable
define void @_ZN9Scheduler8SortCalcEv(ptr noundef nonnull align 8 dereferenceable(43416) %0) #5 align 2 {
  %2 = alloca ptr, align 8
  %3 = alloca ptr, align 8
  %4 = alloca ptr, align 8
  %5 = alloca i32, align 4
  %6 = alloca i32, align 4
  %7 = alloca i32, align 4
  %8 = alloca i32, align 4
  %9 = alloca i32, align 4
  %10 = alloca ptr, align 8
  %11 = alloca double, align 8
  %12 = alloca %"struct.Scheduler::groupType", align 4
  %13 = alloca i32, align 4
  %14 = alloca i32, align 4
  store ptr %0, ptr %2, align 8
  %15 = load ptr, ptr %2, align 8
  store i32 0, ptr %8, align 4
  br label %16

16:                                               ; preds = %120, %1
  %17 = load i32, ptr %8, align 4
  %18 = getelementptr inbounds nuw %class.Scheduler, ptr %15, i32 0, i32 2
  %19 = load i32, ptr %18, align 8
  %20 = icmp slt i32 %17, %19
  br i1 %20, label %21, label %123

21:                                               ; preds = %16
  %22 = getelementptr inbounds nuw %class.Scheduler, ptr %15, i32 0, i32 1
  %23 = load i32, ptr %8, align 4
  %24 = sext i32 %23 to i64
  %25 = getelementptr inbounds [200 x %"struct.Scheduler::groupType"], ptr %22, i64 0, i64 %24
  %26 = getelementptr inbounds nuw %"struct.Scheduler::groupType", ptr %25, i32 0, i32 0
  %27 = load i32, ptr %26, align 8
  store i32 %27, ptr %5, align 4
  %28 = getelementptr inbounds nuw %class.Scheduler, ptr %15, i32 0, i32 1
  %29 = load i32, ptr %8, align 4
  %30 = sext i32 %29 to i64
  %31 = getelementptr inbounds [200 x %"struct.Scheduler::groupType"], ptr %28, i64 0, i64 %30
  %32 = getelementptr inbounds nuw %"struct.Scheduler::groupType", ptr %31, i32 0, i32 1
  %33 = load i32, ptr %32, align 4
  store i32 %33, ptr %6, align 4
  %34 = getelementptr inbounds nuw %class.Scheduler, ptr %15, i32 0, i32 5
  %35 = load i32, ptr %5, align 4
  %36 = sext i32 %35 to i64
  %37 = getelementptr inbounds [6 x [200 x %"struct.Scheduler::listType"]], ptr %34, i64 0, i64 %36
  %38 = load i32, ptr %6, align 4
  %39 = sext i32 %38 to i64
  %40 = getelementptr inbounds [200 x %"struct.Scheduler::listType"], ptr %37, i64 0, i64 %39
  store ptr %40, ptr %3, align 8
  %41 = load ptr, ptr %3, align 8
  %42 = getelementptr inbounds nuw %"struct.Scheduler::listType", ptr %41, i32 0, i32 0
  %43 = load i32, ptr %42, align 4
  store i32 %43, ptr %7, align 4
  %44 = getelementptr inbounds nuw %class.Scheduler, ptr %15, i32 0, i32 0
  %45 = load i32, ptr %7, align 4
  %46 = sext i32 %45 to i64
  %47 = getelementptr inbounds [200 x %"struct.Scheduler::handType"], ptr %44, i64 0, i64 %46
  store ptr %47, ptr %4, align 8
  %48 = getelementptr inbounds nuw %class.Scheduler, ptr %15, i32 0, i32 1
  %49 = load i32, ptr %8, align 4
  %50 = sext i32 %49 to i64
  %51 = getelementptr inbounds [200 x %"struct.Scheduler::groupType"], ptr %48, i64 0, i64 %50
  %52 = getelementptr inbounds nuw %"struct.Scheduler::groupType", ptr %51, i32 0, i32 2
  store i32 272000, ptr %52, align 8
  %53 = load ptr, ptr %4, align 8
  %54 = getelementptr inbounds nuw %"struct.Scheduler::handType", ptr %53, i32 0, i32 9
  %55 = load i32, ptr %54, align 4
  store i32 %55, ptr %9, align 4
  %56 = load ptr, ptr %4, align 8
  %57 = getelementptr inbounds nuw %"struct.Scheduler::handType", ptr %56, i32 0, i32 3
  %58 = load i32, ptr %57, align 4
  %59 = sext i32 %58 to i64
  %60 = getelementptr inbounds [2 x [5 x double]], ptr @SORT_CALC_FANOUT, i64 0, i64 %59
  %61 = getelementptr inbounds [5 x double], ptr %60, i64 0, i64 0
  store ptr %61, ptr %10, align 8
  %62 = load i32, ptr %9, align 4
  %63 = sitofp i32 %62 to double
  %64 = load ptr, ptr %10, align 8
  %65 = getelementptr inbounds double, ptr %64, i64 0
  %66 = load double, ptr %65, align 8
  %67 = fcmp olt double %63, %66
  br i1 %67, label %68, label %69

68:                                               ; preds = %21
  store double 0.000000e+00, ptr %11, align 8
  br label %104

69:                                               ; preds = %21
  %70 = load i32, ptr %9, align 4
  %71 = sitofp i32 %70 to double
  %72 = load ptr, ptr %10, align 8
  %73 = getelementptr inbounds double, ptr %72, i64 1
  %74 = load double, ptr %73, align 8
  %75 = fcmp olt double %71, %74
  br i1 %75, label %76, label %87

76:                                               ; preds = %69
  %77 = load ptr, ptr %10, align 8
  %78 = getelementptr inbounds double, ptr %77, i64 2
  %79 = load double, ptr %78, align 8
  %80 = load i32, ptr %9, align 4
  %81 = sitofp i32 %80 to double
  %82 = load ptr, ptr %10, align 8
  %83 = getelementptr inbounds double, ptr %82, i64 0
  %84 = load double, ptr %83, align 8
  %85 = fsub double %81, %84
  %86 = fmul double %79, %85
  store double %86, ptr %11, align 8
  br label %103

87:                                               ; preds = %69
  %88 = load ptr, ptr %10, align 8
  %89 = getelementptr inbounds double, ptr %88, i64 3
  %90 = load double, ptr %89, align 8
  %91 = load i32, ptr %9, align 4
  %92 = sitofp i32 %91 to double
  %93 = load ptr, ptr %10, align 8
  %94 = getelementptr inbounds double, ptr %93, i64 1
  %95 = load double, ptr %94, align 8
  %96 = fsub double %92, %95
  %97 = load ptr, ptr %10, align 8
  %98 = getelementptr inbounds double, ptr %97, i64 4
  %99 = load double, ptr %98, align 8
  %100 = fdiv double %96, %99
  %101 = call double @exp(double noundef %100) #3
  %102 = fmul double %90, %101
  store double %102, ptr %11, align 8
  br label %103

103:                                              ; preds = %87, %76
  br label %104

104:                                              ; preds = %103, %68
  %105 = load double, ptr %11, align 8
  %106 = getelementptr inbounds nuw %class.Scheduler, ptr %15, i32 0, i32 1
  %107 = load i32, ptr %8, align 4
  %108 = sext i32 %107 to i64
  %109 = getelementptr inbounds [200 x %"struct.Scheduler::groupType"], ptr %106, i64 0, i64 %108
  %110 = getelementptr inbounds nuw %"struct.Scheduler::groupType", ptr %109, i32 0, i32 2
  %111 = load i32, ptr %110, align 8
  %112 = sitofp i32 %111 to double
  %113 = fmul double %105, %112
  %114 = fptosi double %113 to i32
  %115 = getelementptr inbounds nuw %class.Scheduler, ptr %15, i32 0, i32 1
  %116 = load i32, ptr %8, align 4
  %117 = sext i32 %116 to i64
  %118 = getelementptr inbounds [200 x %"struct.Scheduler::groupType"], ptr %115, i64 0, i64 %117
  %119 = getelementptr inbounds nuw %"struct.Scheduler::groupType", ptr %118, i32 0, i32 2
  store i32 %114, ptr %119, align 8
  br label %120

120:                                              ; preds = %104
  %121 = load i32, ptr %8, align 4
  %122 = add nsw i32 %121, 1
  store i32 %122, ptr %8, align 4
  br label %16, !llvm.loop !27

123:                                              ; preds = %16
  store i32 0, ptr %13, align 4
  br label %124

124:                                              ; preds = %169, %123
  %125 = load i32, ptr %13, align 4
  %126 = getelementptr inbounds nuw %class.Scheduler, ptr %15, i32 0, i32 2
  %127 = load i32, ptr %126, align 8
  %128 = icmp slt i32 %125, %127
  br i1 %128, label %129, label %172

129:                                              ; preds = %124
  %130 = getelementptr inbounds nuw %class.Scheduler, ptr %15, i32 0, i32 1
  %131 = load i32, ptr %13, align 4
  %132 = sext i32 %131 to i64
  %133 = getelementptr inbounds [200 x %"struct.Scheduler::groupType"], ptr %130, i64 0, i64 %132
  call void @llvm.memcpy.p0.p0.i64(ptr align 4 %12, ptr align 8 %133, i64 24, i1 false)
  %134 = load i32, ptr %13, align 4
  store i32 %134, ptr %14, align 4
  br label %135

135:                                              ; preds = %161, %129
  %136 = load i32, ptr %14, align 4
  %137 = icmp ne i32 %136, 0
  br i1 %137, label %138, label %149

138:                                              ; preds = %135
  %139 = getelementptr inbounds nuw %"struct.Scheduler::groupType", ptr %12, i32 0, i32 2
  %140 = load i32, ptr %139, align 4
  %141 = getelementptr inbounds nuw %class.Scheduler, ptr %15, i32 0, i32 1
  %142 = load i32, ptr %14, align 4
  %143 = sub nsw i32 %142, 1
  %144 = sext i32 %143 to i64
  %145 = getelementptr inbounds [200 x %"struct.Scheduler::groupType"], ptr %141, i64 0, i64 %144
  %146 = getelementptr inbounds nuw %"struct.Scheduler::groupType", ptr %145, i32 0, i32 2
  %147 = load i32, ptr %146, align 8
  %148 = icmp sgt i32 %140, %147
  br label %149

149:                                              ; preds = %138, %135
  %150 = phi i1 [ false, %135 ], [ %148, %138 ]
  br i1 %150, label %151, label %164

151:                                              ; preds = %149
  %152 = getelementptr inbounds nuw %class.Scheduler, ptr %15, i32 0, i32 1
  %153 = load i32, ptr %14, align 4
  %154 = sub nsw i32 %153, 1
  %155 = sext i32 %154 to i64
  %156 = getelementptr inbounds [200 x %"struct.Scheduler::groupType"], ptr %152, i64 0, i64 %155
  %157 = getelementptr inbounds nuw %class.Scheduler, ptr %15, i32 0, i32 1
  %158 = load i32, ptr %14, align 4
  %159 = sext i32 %158 to i64
  %160 = getelementptr inbounds [200 x %"struct.Scheduler::groupType"], ptr %157, i64 0, i64 %159
  call void @llvm.memcpy.p0.p0.i64(ptr align 8 %160, ptr align 8 %156, i64 24, i1 false)
  br label %161

161:                                              ; preds = %151
  %162 = load i32, ptr %14, align 4
  %163 = add nsw i32 %162, -1
  store i32 %163, ptr %14, align 4
  br label %135, !llvm.loop !28

164:                                              ; preds = %149
  %165 = getelementptr inbounds nuw %class.Scheduler, ptr %15, i32 0, i32 1
  %166 = load i32, ptr %14, align 4
  %167 = sext i32 %166 to i64
  %168 = getelementptr inbounds [200 x %"struct.Scheduler::groupType"], ptr %165, i64 0, i64 %167
  call void @llvm.memcpy.p0.p0.i64(ptr align 8 %168, ptr align 4 %12, i64 24, i1 false)
  br label %169

169:                                              ; preds = %164
  %170 = load i32, ptr %13, align 4
  %171 = add nsw i32 %170, 1
  store i32 %171, ptr %13, align 4
  br label %124, !llvm.loop !29

172:                                              ; preds = %124
  ret void
}