; Function Attrs: mustprogress nofree nounwind memory(readwrite, inaccessiblemem: write) uwtable
define void @_ZN9Scheduler8SortCalcEv(ptr nocapture noundef nonnull align 8 dereferenceable(43416) %0) local_unnamed_addr #6 align 2 {
  %.sroa.3 = alloca { i32, i32, i32 }, align 8
  %2 = getelementptr inbounds nuw i8, ptr %0, i64 27200
  %3 = load i32, ptr %2, align 8
  %4 = icmp sgt i32 %3, 0
  br i1 %4, label %.lr.ph, label %._crit_edge

.lr.ph:                                           ; preds = %1
  %5 = getelementptr inbounds nuw i8, ptr %0, i64 22400
  %6 = getelementptr inbounds nuw i8, ptr %0, i64 27212
  br label %9

.preheader:                                       ; preds = %50
  %7 = icmp sgt i32 %51, 0
  br i1 %7, label %.lr.ph51, label %._crit_edge

.lr.ph51:                                         ; preds = %.preheader
  %8 = getelementptr inbounds nuw i8, ptr %0, i64 22400
  br label %57

9:                                                ; preds = %.lr.ph, %50
  %10 = phi i32 [ %3, %.lr.ph ], [ %51, %50 ]
  %indvars.iv = phi i64 [ 0, %.lr.ph ], [ %indvars.iv.next, %50 ]
  %11 = getelementptr inbounds [200 x %"struct.Scheduler::groupType"], ptr %5, i64 0, i64 %indvars.iv
  %12 = load i32, ptr %11, align 8
  %13 = getelementptr inbounds nuw i8, ptr %11, i64 4
  %14 = load i32, ptr %13, align 4
  %15 = sext i32 %12 to i64
  %16 = sext i32 %14 to i64
  %17 = getelementptr inbounds [6 x [200 x %"struct.Scheduler::listType"]], ptr %6, i64 0, i64 %15, i64 %16
  %18 = load i32, ptr %17, align 4
  %19 = sext i32 %18 to i64
  %20 = getelementptr inbounds [200 x %"struct.Scheduler::handType"], ptr %0, i64 0, i64 %19
  %21 = getelementptr inbounds nuw i8, ptr %11, i64 8
  store i32 272000, ptr %21, align 8
  %22 = getelementptr inbounds nuw i8, ptr %20, i64 96
  %23 = load i32, ptr %22, align 8
  %24 = getelementptr inbounds nuw i8, ptr %20, i64 72
  %25 = load i32, ptr %24, align 8
  %26 = sext i32 %25 to i64
  %27 = getelementptr inbounds [2 x [5 x double]], ptr @SORT_CALC_FANOUT, i64 0, i64 %26
  %28 = sitofp i32 %23 to double
  %29 = load double, ptr %27, align 8
  %30 = fcmp ogt double %29, %28
  br i1 %30, label %50, label %31

31:                                               ; preds = %9
  %32 = getelementptr inbounds i8, ptr %27, i64 8
  %33 = load double, ptr %32, align 8
  %34 = fcmp ogt double %33, %28
  br i1 %34, label %35, label %40

35:                                               ; preds = %31
  %36 = getelementptr inbounds i8, ptr %27, i64 16
  %37 = load double, ptr %36, align 8
  %38 = fsub double %28, %29
  %39 = fmul double %38, %37
  br label %50

40:                                               ; preds = %31
  %41 = getelementptr inbounds i8, ptr %27, i64 24
  %42 = load double, ptr %41, align 8
  %43 = fsub double %28, %33
  %44 = getelementptr inbounds i8, ptr %27, i64 32
  %45 = load double, ptr %44, align 8
  %46 = fdiv double %43, %45
  %47 = tail call double @exp(double noundef %46) #23
  %48 = fmul double %42, %47
  %.pre = load i32, ptr %21, align 8
  %.pre59 = load i32, ptr %2, align 8
  %49 = sitofp i32 %.pre to double
  br label %50

50:                                               ; preds = %9, %35, %40
  %51 = phi i32 [ %10, %35 ], [ %.pre59, %40 ], [ %10, %9 ]
  %52 = phi double [ 2.720000e+05, %35 ], [ %49, %40 ], [ 2.720000e+05, %9 ]
  %.040 = phi double [ %39, %35 ], [ %48, %40 ], [ 0.000000e+00, %9 ]
  %53 = fmul double %.040, %52
  %54 = fptosi double %53 to i32
  store i32 %54, ptr %21, align 8
  %indvars.iv.next = add nuw nsw i64 %indvars.iv, 1
  %55 = sext i32 %51 to i64
  %56 = icmp slt i64 %indvars.iv.next, %55
  br i1 %56, label %9, label %.preheader, !llvm.loop !31

57:                                               ; preds = %.lr.ph51, %.critedge
  %indvars.iv53 = phi i64 [ 0, %.lr.ph51 ], [ %indvars.iv.next54, %.critedge ]
  %58 = getelementptr inbounds [200 x %"struct.Scheduler::groupType"], ptr %8, i64 0, i64 %indvars.iv53
  %59 = load i64, ptr %58, align 8
  %.sroa.2.0..sroa_idx = getelementptr inbounds i8, ptr %58, i64 8
  %.sroa.2.0.copyload = load i32, ptr %.sroa.2.0..sroa_idx, align 8
  %.sroa.3.0..sroa_idx = getelementptr inbounds i8, ptr %58, i64 12
  call void @llvm.memcpy.p0.p0.i64(ptr noundef nonnull align 8 dereferenceable(12) %.sroa.3, ptr noundef nonnull align 4 dereferenceable(12) %.sroa.3.0..sroa_idx, i64 12, i1 false)
  %.not45 = icmp eq i64 %indvars.iv53, 0
  br i1 %.not45, label %.critedge, label %.lr.ph47

.lr.ph47:                                         ; preds = %57, %64
  %indvars.iv55 = phi i64 [ %indvars.iv.next56, %64 ], [ %indvars.iv53, %57 ]
  %indvars.iv.next56 = add nsw i64 %indvars.iv55, -1
  %60 = getelementptr inbounds [200 x %"struct.Scheduler::groupType"], ptr %8, i64 0, i64 %indvars.iv.next56
  %61 = getelementptr inbounds nuw i8, ptr %60, i64 8
  %62 = load i32, ptr %61, align 8
  %63 = icmp sgt i32 %.sroa.2.0.copyload, %62
  br i1 %63, label %64, label %.critedge.loopexit

64:                                               ; preds = %.lr.ph47
  %65 = getelementptr inbounds [200 x %"struct.Scheduler::groupType"], ptr %8, i64 0, i64 %indvars.iv55
  tail call void @llvm.memcpy.p0.p0.i64(ptr noundef nonnull align 8 dereferenceable(24) %65, ptr noundef nonnull align 8 dereferenceable(24) %60, i64 24, i1 false)
  %66 = icmp eq i64 %indvars.iv.next56, 0
  br i1 %66, label %.critedge.loopexit, label %.lr.ph47, !llvm.loop !32

.critedge.loopexit:                               ; preds = %64, %.lr.ph47
  %.0.lcssa.ph = phi i64 [ %indvars.iv55, %.lr.ph47 ], [ 0, %64 ]
  %67 = shl i64 %.0.lcssa.ph, 32
  %68 = ashr exact i64 %67, 32
  br label %.critedge

.critedge:                                        ; preds = %.critedge.loopexit, %57
  %.0.lcssa = phi i64 [ 0, %57 ], [ %68, %.critedge.loopexit ]
  %69 = getelementptr inbounds [200 x %"struct.Scheduler::groupType"], ptr %8, i64 0, i64 %.0.lcssa
  store i64 %59, ptr %69, align 8
  %.sroa.2.0..sroa_idx10 = getelementptr inbounds i8, ptr %69, i64 8
  store i32 %.sroa.2.0.copyload, ptr %.sroa.2.0..sroa_idx10, align 8
  %.sroa.3.0..sroa_idx12 = getelementptr inbounds i8, ptr %69, i64 12
  call void @llvm.memcpy.p0.p0.i64(ptr noundef nonnull align 4 dereferenceable(12) %.sroa.3.0..sroa_idx12, ptr noundef nonnull align 8 dereferenceable(12) %.sroa.3, i64 12, i1 false)
  %indvars.iv.next54 = add nuw nsw i64 %indvars.iv53, 1
  %70 = load i32, ptr %2, align 8
  %71 = sext i32 %70 to i64
  %72 = icmp slt i64 %indvars.iv.next54, %71
  br i1 %72, label %57, label %._crit_edge, !llvm.loop !33

._crit_edge:                                      ; preds = %.critedge, %1, %.preheader
  ret void
}